Certificate:
    Data:
        Version: 3 (0x2)
        Serial Number: 0 (0x0)
        Signature Algorithm: sha256WithRSAEncryption
        Issuer: C=PT, ST=Porto, L=Porto, O=Universidade do Porto, OU=MSI, CN=SubCA13/emailAddress=up201606726@fc.up.pt
        Validity
            Not Before: Apr 25 17:19:22 2020 GMT
            Not After : Apr 25 17:19:22 2021 GMT
        Subject: C=PT, ST=Porto, L=Porto, O=Universidade do Porto, OU=MSI, CN=Sara Ferreira/emailAddress=up201606726@fc.up.pt
        Subject Public Key Info:
            Public Key Algorithm: rsaEncryption
                RSA Public-Key: (2048 bit)
                Modulus:
                    00:ab:40:38:de:e9:89:c9:bf:48:95:05:cf:19:00:
                    36:75:c7:2b:6b:24:4d:53:ab:6c:c9:e3:51:0c:bd:
                    68:46:5d:65:b4:b4:bb:ea:fb:fb:69:bc:ce:67:dd:
                    80:85:05:d5:72:17:2a:7c:7f:47:35:87:e0:69:fd:
                    45:8c:74:c3:7d:38:f9:17:b1:6e:8d:3f:35:e1:43:
                    fd:b3:e1:f5:01:30:f3:ca:86:9f:41:33:d9:16:4a:
                    78:3a:d0:a3:f9:49:13:6e:c6:c8:dd:bb:2f:85:54:
                    5f:0e:c9:4c:0e:9d:9d:e6:ae:5d:b9:76:25:6f:e3:
                    87:55:3c:e2:b9:46:2b:8e:3a:32:4a:fc:e7:c8:a3:
                    d7:e3:1c:d4:2f:6e:56:7c:15:80:be:dd:1b:d2:97:
                    16:6d:65:30:fb:fc:b8:a4:87:1a:64:cc:7b:23:c8:
                    b5:29:06:f1:32:c0:f2:c6:da:48:e6:d7:a7:43:7e:
                    14:55:c7:a3:7b:79:53:d2:74:07:9f:35:52:17:22:
                    a6:7c:b6:86:ab:36:9a:63:bc:66:14:4a:37:02:88:
                    86:ed:5b:a4:2b:d9:48:07:b8:07:d7:60:3a:eb:ba:
                    a1:32:b6:33:aa:42:eb:86:e8:09:1e:6c:41:28:39:
                    4b:87:29:ec:ca:7f:89:a9:a5:bd:9b:cf:e2:cf:ef:
                    2c:ad
                Exponent: 65537 (0x10001)
        X509v3 extensions:
            X509v3 Basic Constraints: 
                CA:FALSE
            Netscape Comment: 
                OpenSSL Generated Certificate
            X509v3 Subject Key Identifier: 
                35:5C:22:03:1E:61:D9:A0:C9:DF:43:47:5F:DA:3D:33:AA:66:F9:3C
            X509v3 Authority Key Identifier: 
                keyid:74:A5:3C:7B:9F:14:E3:22:6F:0D:65:2B:06:0A:AB:FD:F8:2D:94:93

    Signature Algorithm: sha256WithRSAEncryption
         37:f4:fa:49:de:61:65:1c:94:47:c9:77:90:13:4f:ba:03:cf:
         ae:bc:91:4f:8c:89:66:74:ed:64:fb:3f:83:cf:03:d5:f9:4f:
         09:d3:f8:21:80:60:87:1c:93:8b:8d:0a:07:fd:56:ac:2d:55:
         d6:a5:b2:15:e7:34:84:c3:cd:cc:66:2b:50:e1:b4:5a:98:44:
         cd:5f:6e:4d:7a:30:0d:fb:f5:30:51:ce:db:b5:a2:e8:7c:05:
         45:dd:6e:fe:1f:ce:e4:ba:31:5e:5d:56:05:dc:84:af:0b:23:
         1a:84:ab:04:30:53:37:5a:34:9f:70:47:e3:76:00:bd:50:91:
         cb:41:5a:04:73:9a:e1:5e:76:6e:05:a4:a1:6a:7f:07:69:5d:
         51:72:a6:c4:c4:e6:b5:74:9a:aa:9b:ee:98:47:b3:c0:e4:a9:
         2a:18:30:30:72:54:4b:68:05:40:5f:a7:46:8a:67:82:b3:98:
         60:25:b7:09:e7:b0:ff:86:45:bd:e0:1a:b8:b1:8c:ca:4e:4f:
         ca:a0:26:ae:a8:5b:91:1a:2d:85:aa:f6:51:36:40:ea:64:84:
         86:c3:c6:61:7a:79:4d:44:1a:f6:5c:25:a7:b6:8d:89:57:cf:
         a8:e2:70:da:94:2d:83:74:9d:33:5c:68:d6:12:65:b4:87:b6:
         cb:c0:ab:6a
-----BEGIN CERTIFICATE-----
MIIEIjCCAwqgAwIBAgIBADANBgkqhkiG9w0BAQsFADCBkjELMAkGA1UEBhMCUFQx
DjAMBgNVBAgMBVBvcnRvMQ4wDAYDVQQHDAVQb3J0bzEeMBwGA1UECgwVVW5pdmVy
c2lkYWRlIGRvIFBvcnRvMQwwCgYDVQQLDANNU0kxEDAOBgNVBAMMB1N1YkNBMTMx
IzAhBgkqhkiG9w0BCQEWFHVwMjAxNjA2NzI2QGZjLnVwLnB0MB4XDTIwMDQyNTE3
MTkyMloXDTIxMDQyNTE3MTkyMlowgZgxCzAJBgNVBAYTAlBUMQ4wDAYDVQQIDAVQ
b3J0bzEOMAwGA1UEBwwFUG9ydG8xHjAcBgNVBAoMFVVuaXZlcnNpZGFkZSBkbyBQ
b3J0bzEMMAoGA1UECwwDTVNJMRYwFAYDVQQDDA1TYXJhIEZlcnJlaXJhMSMwIQYJ
KoZIhvcNAQkBFhR1cDIwMTYwNjcyNkBmYy51cC5wdDCCASIwDQYJKoZIhvcNAQEB
BQADggEPADCCAQoCggEBAKtAON7picm/SJUFzxkANnXHK2skTVOrbMnjUQy9aEZd
ZbS0u+r7+2m8zmfdgIUF1XIXKnx/RzWH4Gn9RYx0w304+Rexbo0/NeFD/bPh9QEw
88qGn0Ez2RZKeDrQo/lJE27GyN27L4VUXw7JTA6dneauXbl2JW/jh1U84rlGK446
Mkr858ij1+Mc1C9uVnwVgL7dG9KXFm1lMPv8uKSHGmTMeyPItSkG8TLA8sbaSObX
p0N+FFXHo3t5U9J0B581Uhcipny2hqs2mmO8ZhRKNwKIhu1bpCvZSAe4B9dgOuu6
oTK2M6pC64boCR5sQSg5S4cp7Mp/iamlvZvP4s/vLK0CAwEAAaN7MHkwCQYDVR0T
BAIwADAsBglghkgBhvhCAQ0EHxYdT3BlblNTTCBHZW5lcmF0ZWQgQ2VydGlmaWNh
dGUwHQYDVR0OBBYEFDVcIgMeYdmgyd9DR1/aPTOqZvk8MB8GA1UdIwQYMBaAFHSl
PHufFOMibw1lKwYKq/34LZSTMA0GCSqGSIb3DQEBCwUAA4IBAQA39PpJ3mFlHJRH
yXeQE0+6A8+uvJFPjIlmdO1k+z+DzwPV+U8J0/ghgGCHHJOLjQoH/VasLVXWpbIV
5zSEw83MZitQ4bRamETNX25NejAN+/UwUc7btaLofAVF3W7+H87kujFeXVYF3ISv
CyMahKsEMFM3WjSfcEfjdgC9UJHLQVoEc5rhXnZuBaShan8HaV1RcqbExOa1dJqq
m+6YR7PA5KkqGDAwclRLaAVAX6dGimeCs5hgJbcJ57D/hkW94Bq4sYzKTk/KoCau
qFuRGi2FqvZRNkDqZISGw8ZhenlNRBr2XCWnto2JV8+o4nDalC2DdJ0zXGjWEmW0
h7bLwKtq
-----END CERTIFICATE-----
