Certificate:
    Data:
        Version: 3 (0x2)
        Serial Number: 1 (0x1)
        Signature Algorithm: sha256WithRSAEncryption
        Issuer: C=PT, ST=Porto, L=Porto, O=Universidade do Porto, OU=MSI, CN=SubCA13/emailAddress=up201606726@fc.up.pt
        Validity
            Not Before: May 25 21:03:46 2020 GMT
            Not After : May 25 21:03:46 2021 GMT
        Subject: C=PT, ST=Porto, L=Porto, O=Universidade do Porto, OU=MSI, CN=Tiago Carvalho/emailAddress=up201605259@fc.up.pt
        Subject Public Key Info:
            Public Key Algorithm: rsaEncryption
                RSA Public-Key: (2048 bit)
                Modulus:
                    00:c5:8a:55:d1:eb:fd:15:72:c2:9b:e0:11:d5:fe:
                    d6:37:91:19:dd:48:4f:86:35:2e:82:6d:3d:10:cd:
                    f4:59:5c:ca:87:fa:a2:14:d4:81:d4:d8:c2:fa:b4:
                    88:f5:2b:9c:47:f5:84:fb:14:af:8a:38:c2:05:13:
                    86:ca:76:fd:b6:e8:d1:e4:21:a2:57:c2:77:bc:05:
                    a5:93:8e:d7:36:a0:98:0e:ab:f2:13:78:d2:d3:c6:
                    47:0b:ae:82:04:c9:c0:75:34:7b:21:45:4d:b1:9f:
                    ae:88:f5:34:77:64:e9:75:59:b6:47:6b:c5:e7:93:
                    05:04:2c:79:c4:1f:7c:2b:5b:6b:73:5c:66:64:d5:
                    45:0e:60:e4:18:85:8e:06:85:7c:50:46:1d:74:84:
                    59:f6:0c:e3:22:a9:7e:8b:da:fc:56:d1:d4:2a:4a:
                    99:4b:38:4e:90:22:68:09:ef:3f:b6:b8:cc:ac:3d:
                    9c:0e:0d:66:e2:6e:d8:d1:2e:c9:11:07:2a:a2:0b:
                    19:eb:92:30:cb:1f:c6:a4:16:0f:7c:7b:f8:69:ca:
                    fe:fe:41:19:35:7f:95:41:47:73:00:da:96:60:6d:
                    7b:fe:e8:a9:29:7b:14:29:59:1c:2d:a4:37:02:30:
                    8f:95:d6:7b:50:cd:dc:cd:93:78:49:df:71:8a:62:
                    2a:39
                Exponent: 65537 (0x10001)
        X509v3 extensions:
            X509v3 Basic Constraints: 
                CA:FALSE
            Netscape Comment: 
                OpenSSL Generated Certificate
            X509v3 Subject Key Identifier: 
                5D:9C:85:7E:F6:E8:8F:C1:FA:E8:4C:B5:8B:F7:D9:1A:AE:C5:7F:D5
            X509v3 Authority Key Identifier: 
                keyid:74:A5:3C:7B:9F:14:E3:22:6F:0D:65:2B:06:0A:AB:FD:F8:2D:94:93

    Signature Algorithm: sha256WithRSAEncryption
         9e:c9:08:e6:09:ed:13:7b:a1:7b:da:ce:7a:24:ac:98:e3:03:
         26:57:b8:af:ae:7f:df:e2:b0:6d:51:16:65:08:56:b9:b6:16:
         03:78:d2:23:10:d5:40:5c:96:8e:e5:7f:93:96:49:77:53:7f:
         92:b2:b1:85:c8:a4:4d:f3:3f:d3:17:c8:e4:9d:26:78:14:bd:
         23:de:8b:07:23:17:f3:93:dd:ca:76:a1:fc:ed:ed:55:a0:4d:
         27:43:aa:21:87:ae:c7:ef:92:e5:80:eb:d7:02:f6:75:d4:21:
         e8:69:37:aa:13:c2:c8:97:57:2c:be:88:ac:98:92:26:50:b9:
         aa:82:80:8d:30:37:ab:a9:8c:1b:05:52:86:c3:d1:9f:d0:d5:
         c4:30:11:0a:1e:77:ce:17:0d:49:78:02:58:7f:f0:ba:ea:2d:
         36:21:ec:d6:18:2e:8f:4c:4e:2e:bc:6b:88:cb:d5:6d:c9:9b:
         53:ed:6d:ca:08:73:64:5d:57:4d:9f:ac:7d:59:3b:bc:96:7e:
         a9:ee:0b:ce:68:4d:9f:36:33:38:1a:38:76:93:9d:19:66:49:
         0b:65:36:af:70:a4:6d:0d:e5:ba:d4:01:33:f0:06:c3:d4:38:
         a7:11:8a:78:83:c4:5c:94:40:b9:8c:44:e5:e8:a7:e0:2b:8e:
         c3:0c:92:f7
-----BEGIN CERTIFICATE-----
MIIEIzCCAwugAwIBAgIBATANBgkqhkiG9w0BAQsFADCBkjELMAkGA1UEBhMCUFQx
DjAMBgNVBAgMBVBvcnRvMQ4wDAYDVQQHDAVQb3J0bzEeMBwGA1UECgwVVW5pdmVy
c2lkYWRlIGRvIFBvcnRvMQwwCgYDVQQLDANNU0kxEDAOBgNVBAMMB1N1YkNBMTMx
IzAhBgkqhkiG9w0BCQEWFHVwMjAxNjA2NzI2QGZjLnVwLnB0MB4XDTIwMDUyNTIx
MDM0NloXDTIxMDUyNTIxMDM0NlowgZkxCzAJBgNVBAYTAlBUMQ4wDAYDVQQIDAVQ
b3J0bzEOMAwGA1UEBwwFUG9ydG8xHjAcBgNVBAoMFVVuaXZlcnNpZGFkZSBkbyBQ
b3J0bzEMMAoGA1UECwwDTVNJMRcwFQYDVQQDDA5UaWFnbyBDYXJ2YWxobzEjMCEG
CSqGSIb3DQEJARYUdXAyMDE2MDUyNTlAZmMudXAucHQwggEiMA0GCSqGSIb3DQEB
AQUAA4IBDwAwggEKAoIBAQDFilXR6/0VcsKb4BHV/tY3kRndSE+GNS6CbT0QzfRZ
XMqH+qIU1IHU2ML6tIj1K5xH9YT7FK+KOMIFE4bKdv226NHkIaJXwne8BaWTjtc2
oJgOq/ITeNLTxkcLroIEycB1NHshRU2xn66I9TR3ZOl1WbZHa8XnkwUELHnEH3wr
W2tzXGZk1UUOYOQYhY4GhXxQRh10hFn2DOMiqX6L2vxW0dQqSplLOE6QImgJ7z+2
uMysPZwODWbibtjRLskRByqiCxnrkjDLH8akFg98e/hpyv7+QRk1f5VBR3MA2pZg
bXv+6KkpexQpWRwtpDcCMI+V1ntQzdzNk3hJ33GKYio5AgMBAAGjezB5MAkGA1Ud
EwQCMAAwLAYJYIZIAYb4QgENBB8WHU9wZW5TU0wgR2VuZXJhdGVkIENlcnRpZmlj
YXRlMB0GA1UdDgQWBBRdnIV+9uiPwfroTLWL99karsV/1TAfBgNVHSMEGDAWgBR0
pTx7nxTjIm8NZSsGCqv9+C2UkzANBgkqhkiG9w0BAQsFAAOCAQEAnskI5gntE3uh
e9rOeiSsmOMDJle4r65/3+KwbVEWZQhWubYWA3jSIxDVQFyWjuV/k5ZJd1N/krKx
hcikTfM/0xfI5J0meBS9I96LByMX85Pdynah/O3tVaBNJ0OqIYeux++S5YDr1wL2
ddQh6Gk3qhPCyJdXLL6IrJiSJlC5qoKAjTA3q6mMGwVShsPRn9DVxDARCh53zhcN
SXgCWH/wuuotNiHs1hguj0xOLrxriMvVbcmbU+1tyghzZF1XTZ+sfVk7vJZ+qe4L
zmhNnzYzOBo4dpOdGWZJC2U2r3CkbQ3lutQBM/AGw9Q4pxGKeIPEXJRAuYxE5ein
4CuOwwyS9w==
-----END CERTIFICATE-----
