Certificate:
    Data:
        Version: 3 (0x2)
        Serial Number: 13732326815087605455 (0xbe93067b38de36cf)
    Signature Algorithm: sha1WithRSAEncryption
        Issuer: C=PT, O=Universidade do Porto, OU=MSI, CN=CA ROOT MSI 2019 2020/emailAddress=mbb@fc.up.pt
        Validity
            Not Before: Apr 15 18:04:58 2020 GMT
            Not After : Apr 15 18:04:58 2023 GMT
        Subject: C=PT, O=Universidade do Porto, OU=MSI, CN=CA ROOT MSI 2019 2020/emailAddress=mbb@fc.up.pt
        Subject Public Key Info:
            Public Key Algorithm: rsaEncryption
                Public-Key: (2048 bit)
                Modulus:
                    00:cc:c1:7e:2b:29:ff:7a:7b:5b:a7:ed:3d:42:81:
                    5b:8e:91:b5:d9:29:bb:43:92:a1:4e:04:df:a1:29:
                    9f:c4:bb:d2:24:f2:b8:a1:46:c6:63:a9:9d:8a:7a:
                    96:29:f9:5c:1d:65:7b:ae:38:b8:1d:16:83:28:aa:
                    25:ee:a5:95:94:43:e9:7c:f7:14:5e:be:c5:3e:7d:
                    5c:0c:bb:5a:1a:eb:bf:52:e4:13:ae:db:ac:d4:a9:
                    4b:4f:54:59:f2:6f:80:e4:2e:29:9e:98:05:ac:af:
                    51:ca:87:b9:82:de:85:22:2b:7d:77:9f:c8:be:51:
                    14:4e:3d:db:72:e1:5d:8b:a4:62:c3:43:50:54:5e:
                    81:e0:f7:c4:9b:1b:bc:a0:3d:05:27:fc:8b:fc:a4:
                    51:af:e3:79:98:d3:c3:c5:a8:ff:1f:d0:c3:e4:72:
                    4f:de:b0:9e:dd:9a:ff:61:61:dd:86:4b:ed:ef:19:
                    05:8d:3b:80:59:50:a7:95:6d:a7:df:79:0f:f0:d6:
                    db:ea:33:99:db:e4:c4:d3:1c:64:83:86:1d:4b:d1:
                    78:f5:5f:2e:07:4e:f8:c4:71:e8:eb:a6:fb:31:91:
                    88:85:fc:d8:0b:1b:d6:0b:b5:cb:63:d4:d8:0b:07:
                    46:56:9a:d1:58:f3:83:10:e5:21:a7:54:b0:6f:df:
                    85:6b
                Exponent: 65537 (0x10001)
        X509v3 extensions:
            X509v3 Subject Key Identifier: 
                82:30:35:17:AA:FD:61:5F:74:CC:A5:00:91:BE:89:66:0B:FF:FF:0B
            X509v3 Authority Key Identifier: 
                keyid:82:30:35:17:AA:FD:61:5F:74:CC:A5:00:91:BE:89:66:0B:FF:FF:0B
                DirName:/C=PT/O=Universidade do Porto/OU=MSI/CN=CA ROOT MSI 2019 2020/emailAddress=mbb@fc.up.pt
                serial:BE:93:06:7B:38:DE:36:CF

            X509v3 Basic Constraints: 
                CA:TRUE
    Signature Algorithm: sha1WithRSAEncryption
         87:12:23:0e:8f:a0:14:35:b0:61:0b:d0:da:2f:1f:d4:bd:1e:
         b1:e3:86:d2:56:c7:5f:9f:2c:b3:fc:ce:04:71:47:0a:22:46:
         ba:04:f1:23:9a:b6:2f:e3:cf:8f:0d:df:97:6a:7f:7d:4d:60:
         39:57:07:33:ec:a9:5a:73:da:05:80:f2:28:d8:5e:19:af:e6:
         12:94:3a:44:90:ef:79:ef:33:22:7e:72:55:3f:cd:a9:c9:b5:
         31:8a:b5:b8:ba:8a:33:af:3b:73:e0:fe:1f:49:a2:23:9f:15:
         d4:be:ee:d0:eb:81:d8:6d:4a:12:7a:fa:19:db:e7:46:27:6c:
         5a:6c:63:0b:b6:5d:1c:d0:f3:52:62:38:6a:86:2a:6c:e2:ce:
         7a:89:2f:7d:07:21:21:3b:be:ad:dc:1e:a1:cb:2e:3c:fe:3d:
         14:e7:2e:71:5f:ca:75:34:94:aa:c8:28:c6:b6:b8:0f:be:a0:
         c4:2b:a1:0e:d5:69:ba:01:28:c0:48:e8:26:fa:51:c4:1d:d1:
         75:06:04:9d:ba:da:8b:89:e2:fc:9d:b7:b9:4f:c7:0b:f9:1e:
         8e:da:e6:f1:2e:81:a2:88:b0:c9:81:1b:55:1e:6d:5c:23:00:
         d8:66:4e:fd:68:0f:94:b3:1b:d8:89:d6:b9:0d:f3:99:fb:ff:
         10:4b:e4:85
-----BEGIN CERTIFICATE-----
MIIEUTCCAzmgAwIBAgIJAL6TBns43jbPMA0GCSqGSIb3DQEBBQUAMHgxCzAJBgNV
BAYTAlBUMR4wHAYDVQQKExVVbml2ZXJzaWRhZGUgZG8gUG9ydG8xDDAKBgNVBAsT
A01TSTEeMBwGA1UEAxMVQ0EgUk9PVCBNU0kgMjAxOSAyMDIwMRswGQYJKoZIhvcN
AQkBFgxtYmJAZmMudXAucHQwHhcNMjAwNDE1MTgwNDU4WhcNMjMwNDE1MTgwNDU4
WjB4MQswCQYDVQQGEwJQVDEeMBwGA1UEChMVVW5pdmVyc2lkYWRlIGRvIFBvcnRv
MQwwCgYDVQQLEwNNU0kxHjAcBgNVBAMTFUNBIFJPT1QgTVNJIDIwMTkgMjAyMDEb
MBkGCSqGSIb3DQEJARYMbWJiQGZjLnVwLnB0MIIBIjANBgkqhkiG9w0BAQEFAAOC
AQ8AMIIBCgKCAQEAzMF+Kyn/entbp+09QoFbjpG12Sm7Q5KhTgTfoSmfxLvSJPK4
oUbGY6mdinqWKflcHWV7rji4HRaDKKol7qWVlEPpfPcUXr7FPn1cDLtaGuu/UuQT
rtus1KlLT1RZ8m+A5C4pnpgFrK9Ryoe5gt6FIit9d5/IvlEUTj3bcuFdi6Riw0NQ
VF6B4PfEmxu8oD0FJ/yL/KRRr+N5mNPDxaj/H9DD5HJP3rCe3Zr/YWHdhkvt7xkF
jTuAWVCnlW2n33kP8Nbb6jOZ2+TE0xxkg4YdS9F49V8uB074xHHo66b7MZGIhfzY
CxvWC7XLY9TYCwdGVprRWPODEOUhp1Swb9+FawIDAQABo4HdMIHaMB0GA1UdDgQW
BBSCMDUXqv1hX3TMpQCRvolmC///CzCBqgYDVR0jBIGiMIGfgBSCMDUXqv1hX3TM
pQCRvolmC///C6F8pHoweDELMAkGA1UEBhMCUFQxHjAcBgNVBAoTFVVuaXZlcnNp
ZGFkZSBkbyBQb3J0bzEMMAoGA1UECxMDTVNJMR4wHAYDVQQDExVDQSBST09UIE1T
SSAyMDE5IDIwMjAxGzAZBgkqhkiG9w0BCQEWDG1iYkBmYy51cC5wdIIJAL6TBns4
3jbPMAwGA1UdEwQFMAMBAf8wDQYJKoZIhvcNAQEFBQADggEBAIcSIw6PoBQ1sGEL
0NovH9S9HrHjhtJWx1+fLLP8zgRxRwoiRroE8SOati/jz48N35dqf31NYDlXBzPs
qVpz2gWA8ijYXhmv5hKUOkSQ73nvMyJ+clU/zanJtTGKtbi6ijOvO3Pg/h9JoiOf
FdS+7tDrgdhtShJ6+hnb50YnbFpsYwu2XRzQ81JiOGqGKmziznqJL30HISE7vq3c
HqHLLjz+PRTnLnFfynU0lKrIKMa2uA++oMQroQ7VaboBKMBI6Cb6UcQd0XUGBJ26
2ouJ4vydt7lPxwv5Ho7a5vEugaKIsMmBG1UebVwjANhmTv1oD5SzG9iJ1rkN85n7
/xBL5IU=
-----END CERTIFICATE-----
Certificate:
    Data:
        Version: 3 (0x2)
        Serial Number: 13732326815087605459 (0xbe93067b38de36d3)
    Signature Algorithm: sha1WithRSAEncryption
        Issuer: C=PT, O=Universidade do Porto, OU=MSI, CN=CA ROOT MSI 2019 2020/emailAddress=mbb@fc.up.pt
        Validity
            Not Before: Apr 24 16:04:40 2020 GMT
            Not After : Apr 24 16:04:40 2021 GMT
        Subject: C=PT, ST=Porto, L=Porto, O=Universidade do Porto, OU=MSI, CN=SubCA13/emailAddress=up201606726@fc.up.pt
        Subject Public Key Info:
            Public Key Algorithm: rsaEncryption
                Public-Key: (2048 bit)
                Modulus:
                    00:ab:4e:3d:8a:2e:d2:f3:a1:80:c4:14:2f:88:5a:
                    1d:36:43:be:8f:5a:6d:1a:85:84:21:ea:1d:5e:45:
                    35:49:26:80:a7:4b:74:2d:40:4a:23:88:df:9b:44:
                    78:30:a1:0b:10:3c:26:fc:38:84:b2:0c:d2:f7:ce:
                    13:04:11:5a:37:08:79:9a:54:59:9a:47:8f:66:72:
                    ac:b8:4e:0f:4d:2d:99:6e:a5:ee:ff:af:98:1c:90:
                    e3:3b:a8:78:c2:ee:a0:25:0b:3d:cc:60:55:d4:ee:
                    fe:bf:c9:ac:13:ac:6a:77:cb:f9:9b:2e:69:4f:71:
                    0e:f1:0f:78:42:28:95:92:dc:4e:44:b8:d9:15:41:
                    20:5f:53:b9:17:53:c4:3b:01:3d:51:d7:15:dc:69:
                    f0:82:e9:ab:3a:7b:9f:d1:ea:8b:e4:5a:0e:23:f6:
                    9e:99:cc:2e:35:1c:71:72:59:fc:fb:12:da:f1:b7:
                    1f:d4:f8:87:a5:db:9e:f7:db:51:00:f7:80:b9:22:
                    91:4a:56:41:52:15:15:a8:a3:f4:64:23:60:8f:3f:
                    0c:7b:17:7d:93:3f:b3:82:83:cc:9c:9b:57:67:d9:
                    ae:90:5b:7f:db:ef:db:40:72:87:dd:75:19:b6:3c:
                    46:d1:80:c3:6f:b1:36:8c:61:d6:ed:83:e6:b0:02:
                    0f:fb
                Exponent: 65537 (0x10001)
        X509v3 extensions:
            X509v3 Subject Key Identifier: 
                74:A5:3C:7B:9F:14:E3:22:6F:0D:65:2B:06:0A:AB:FD:F8:2D:94:93
            X509v3 Authority Key Identifier: 
                keyid:82:30:35:17:AA:FD:61:5F:74:CC:A5:00:91:BE:89:66:0B:FF:FF:0B
                DirName:/C=PT/O=Universidade do Porto/OU=MSI/CN=CA ROOT MSI 2019 2020/emailAddress=mbb@fc.up.pt
                serial:BE:93:06:7B:38:DE:36:CF

            X509v3 Basic Constraints: 
                CA:TRUE
    Signature Algorithm: sha1WithRSAEncryption
         44:84:d6:a4:01:91:c5:23:cd:df:43:49:39:12:a7:b0:1e:8f:
         95:93:a8:1d:ee:73:4b:bb:f9:2d:ec:11:0b:91:1b:04:d8:e5:
         24:54:f1:50:89:00:df:05:e4:ed:a1:39:98:11:db:57:a4:86:
         6f:db:62:ae:1b:24:93:c8:5b:58:1f:62:46:5f:27:bc:e9:cf:
         b3:71:7d:cf:e6:ed:7e:33:74:80:79:9c:e5:bd:a7:27:bc:ad:
         75:2f:03:c9:90:e4:1e:6c:3f:21:a5:5e:e5:72:27:99:1f:8c:
         ea:c2:94:f6:99:ce:db:9d:fc:af:2d:f9:fd:d6:90:57:2b:a1:
         4b:34:38:23:2a:fc:80:c7:e6:87:46:d7:3d:de:7a:75:fe:e7:
         34:9f:9b:f6:01:55:a1:5c:36:c1:3f:cd:25:96:e7:2f:d3:28:
         88:4e:b4:81:7b:f5:1b:44:54:c5:70:1b:67:34:06:03:de:f1:
         eb:27:ce:9c:19:83:86:ef:64:97:5d:f8:9f:b4:ef:76:f1:5c:
         c6:da:9b:a1:b0:c2:af:3a:b0:e1:e7:53:8b:0d:bb:da:ed:20:
         2d:6f:47:60:7d:d1:c4:88:00:60:c1:47:80:0b:14:fc:f0:ca:
         b6:22:38:35:5d:68:30:95:8d:4b:7d:76:77:51:39:ae:7b:ec:
         87:ce:23:6f
-----BEGIN CERTIFICATE-----
MIIEbDCCA1SgAwIBAgIJAL6TBns43jbTMA0GCSqGSIb3DQEBBQUAMHgxCzAJBgNV
BAYTAlBUMR4wHAYDVQQKExVVbml2ZXJzaWRhZGUgZG8gUG9ydG8xDDAKBgNVBAsT
A01TSTEeMBwGA1UEAxMVQ0EgUk9PVCBNU0kgMjAxOSAyMDIwMRswGQYJKoZIhvcN
AQkBFgxtYmJAZmMudXAucHQwHhcNMjAwNDI0MTYwNDQwWhcNMjEwNDI0MTYwNDQw
WjCBkjELMAkGA1UEBhMCUFQxDjAMBgNVBAgMBVBvcnRvMQ4wDAYDVQQHDAVQb3J0
bzEeMBwGA1UECgwVVW5pdmVyc2lkYWRlIGRvIFBvcnRvMQwwCgYDVQQLDANNU0kx
EDAOBgNVBAMMB1N1YkNBMTMxIzAhBgkqhkiG9w0BCQEWFHVwMjAxNjA2NzI2QGZj
LnVwLnB0MIIBIjANBgkqhkiG9w0BAQEFAAOCAQ8AMIIBCgKCAQEAq049ii7S86GA
xBQviFodNkO+j1ptGoWEIeodXkU1SSaAp0t0LUBKI4jfm0R4MKELEDwm/DiEsgzS
984TBBFaNwh5mlRZmkePZnKsuE4PTS2ZbqXu/6+YHJDjO6h4wu6gJQs9zGBV1O7+
v8msE6xqd8v5my5pT3EO8Q94QiiVktxORLjZFUEgX1O5F1PEOwE9UdcV3Gnwgumr
Onuf0eqL5FoOI/aemcwuNRxxcln8+xLa8bcf1PiHpdue99tRAPeAuSKRSlZBUhUV
qKP0ZCNgjz8Mexd9kz+zgoPMnJtXZ9mukFt/2+/bQHKH3XUZtjxG0YDDb7E2jGHW
7YPmsAIP+wIDAQABo4HdMIHaMB0GA1UdDgQWBBR0pTx7nxTjIm8NZSsGCqv9+C2U
kzCBqgYDVR0jBIGiMIGfgBSCMDUXqv1hX3TMpQCRvolmC///C6F8pHoweDELMAkG
A1UEBhMCUFQxHjAcBgNVBAoTFVVuaXZlcnNpZGFkZSBkbyBQb3J0bzEMMAoGA1UE
CxMDTVNJMR4wHAYDVQQDExVDQSBST09UIE1TSSAyMDE5IDIwMjAxGzAZBgkqhkiG
9w0BCQEWDG1iYkBmYy51cC5wdIIJAL6TBns43jbPMAwGA1UdEwQFMAMBAf8wDQYJ
KoZIhvcNAQEFBQADggEBAESE1qQBkcUjzd9DSTkSp7Aej5WTqB3uc0u7+S3sEQuR
GwTY5SRU8VCJAN8F5O2hOZgR21ekhm/bYq4bJJPIW1gfYkZfJ7zpz7Nxfc/m7X4z
dIB5nOW9pye8rXUvA8mQ5B5sPyGlXuVyJ5kfjOrClPaZztud/K8t+f3WkFcroUs0
OCMq/IDH5odG1z3eenX+5zSfm/YBVaFcNsE/zSWW5y/TKIhOtIF79RtEVMVwG2c0
BgPe8esnzpwZg4bvZJdd+J+073bxXMbam6Gwwq86sOHnU4sNu9rtIC1vR2B90cSI
AGDBR4ALFPzwyrYiODVdaDCVjUt9dndROa577IfOI28=
-----END CERTIFICATE-----
