Certificate:
    Data:
        Version: 3 (0x2)
        Serial Number: 13732326815087605455 (0xbe93067b38de36cf)
    Signature Algorithm: sha1WithRSAEncryption
        Issuer: C=PT, O=Universidade do Porto, OU=MSI, CN=CA ROOT MSI 2019 2020/emailAddress=mbb@fc.up.pt
        Validity
            Not Before: Apr 15 18:04:58 2020 GMT
            Not After : Apr 15 18:04:58 2023 GMT
        Subject: C=PT, O=Universidade do Porto, OU=MSI, CN=CA ROOT MSI 2019 2020/emailAddress=mbb@fc.up.pt
        Subject Public Key Info:
            Public Key Algorithm: rsaEncryption
                Public-Key: (2048 bit)
                Modulus:
                    00:cc:c1:7e:2b:29:ff:7a:7b:5b:a7:ed:3d:42:81:
                    5b:8e:91:b5:d9:29:bb:43:92:a1:4e:04:df:a1:29:
                    9f:c4:bb:d2:24:f2:b8:a1:46:c6:63:a9:9d:8a:7a:
                    96:29:f9:5c:1d:65:7b:ae:38:b8:1d:16:83:28:aa:
                    25:ee:a5:95:94:43:e9:7c:f7:14:5e:be:c5:3e:7d:
                    5c:0c:bb:5a:1a:eb:bf:52:e4:13:ae:db:ac:d4:a9:
                    4b:4f:54:59:f2:6f:80:e4:2e:29:9e:98:05:ac:af:
                    51:ca:87:b9:82:de:85:22:2b:7d:77:9f:c8:be:51:
                    14:4e:3d:db:72:e1:5d:8b:a4:62:c3:43:50:54:5e:
                    81:e0:f7:c4:9b:1b:bc:a0:3d:05:27:fc:8b:fc:a4:
                    51:af:e3:79:98:d3:c3:c5:a8:ff:1f:d0:c3:e4:72:
                    4f:de:b0:9e:dd:9a:ff:61:61:dd:86:4b:ed:ef:19:
                    05:8d:3b:80:59:50:a7:95:6d:a7:df:79:0f:f0:d6:
                    db:ea:33:99:db:e4:c4:d3:1c:64:83:86:1d:4b:d1:
                    78:f5:5f:2e:07:4e:f8:c4:71:e8:eb:a6:fb:31:91:
                    88:85:fc:d8:0b:1b:d6:0b:b5:cb:63:d4:d8:0b:07:
                    46:56:9a:d1:58:f3:83:10:e5:21:a7:54:b0:6f:df:
                    85:6b
                Exponent: 65537 (0x10001)
        X509v3 extensions:
            X509v3 Subject Key Identifier: 
                82:30:35:17:AA:FD:61:5F:74:CC:A5:00:91:BE:89:66:0B:FF:FF:0B
            X509v3 Authority Key Identifier: 
                keyid:82:30:35:17:AA:FD:61:5F:74:CC:A5:00:91:BE:89:66:0B:FF:FF:0B
                DirName:/C=PT/O=Universidade do Porto/OU=MSI/CN=CA ROOT MSI 2019 2020/emailAddress=mbb@fc.up.pt
                serial:BE:93:06:7B:38:DE:36:CF

            X509v3 Basic Constraints: 
                CA:TRUE
    Signature Algorithm: sha1WithRSAEncryption
         87:12:23:0e:8f:a0:14:35:b0:61:0b:d0:da:2f:1f:d4:bd:1e:
         b1:e3:86:d2:56:c7:5f:9f:2c:b3:fc:ce:04:71:47:0a:22:46:
         ba:04:f1:23:9a:b6:2f:e3:cf:8f:0d:df:97:6a:7f:7d:4d:60:
         39:57:07:33:ec:a9:5a:73:da:05:80:f2:28:d8:5e:19:af:e6:
         12:94:3a:44:90:ef:79:ef:33:22:7e:72:55:3f:cd:a9:c9:b5:
         31:8a:b5:b8:ba:8a:33:af:3b:73:e0:fe:1f:49:a2:23:9f:15:
         d4:be:ee:d0:eb:81:d8:6d:4a:12:7a:fa:19:db:e7:46:27:6c:
         5a:6c:63:0b:b6:5d:1c:d0:f3:52:62:38:6a:86:2a:6c:e2:ce:
         7a:89:2f:7d:07:21:21:3b:be:ad:dc:1e:a1:cb:2e:3c:fe:3d:
         14:e7:2e:71:5f:ca:75:34:94:aa:c8:28:c6:b6:b8:0f:be:a0:
         c4:2b:a1:0e:d5:69:ba:01:28:c0:48:e8:26:fa:51:c4:1d:d1:
         75:06:04:9d:ba:da:8b:89:e2:fc:9d:b7:b9:4f:c7:0b:f9:1e:
         8e:da:e6:f1:2e:81:a2:88:b0:c9:81:1b:55:1e:6d:5c:23:00:
         d8:66:4e:fd:68:0f:94:b3:1b:d8:89:d6:b9:0d:f3:99:fb:ff:
         10:4b:e4:85
-----BEGIN CERTIFICATE-----
MIIEUTCCAzmgAwIBAgIJAL6TBns43jbPMA0GCSqGSIb3DQEBBQUAMHgxCzAJBgNV
BAYTAlBUMR4wHAYDVQQKExVVbml2ZXJzaWRhZGUgZG8gUG9ydG8xDDAKBgNVBAsT
A01TSTEeMBwGA1UEAxMVQ0EgUk9PVCBNU0kgMjAxOSAyMDIwMRswGQYJKoZIhvcN
AQkBFgxtYmJAZmMudXAucHQwHhcNMjAwNDE1MTgwNDU4WhcNMjMwNDE1MTgwNDU4
WjB4MQswCQYDVQQGEwJQVDEeMBwGA1UEChMVVW5pdmVyc2lkYWRlIGRvIFBvcnRv
MQwwCgYDVQQLEwNNU0kxHjAcBgNVBAMTFUNBIFJPT1QgTVNJIDIwMTkgMjAyMDEb
MBkGCSqGSIb3DQEJARYMbWJiQGZjLnVwLnB0MIIBIjANBgkqhkiG9w0BAQEFAAOC
AQ8AMIIBCgKCAQEAzMF+Kyn/entbp+09QoFbjpG12Sm7Q5KhTgTfoSmfxLvSJPK4
oUbGY6mdinqWKflcHWV7rji4HRaDKKol7qWVlEPpfPcUXr7FPn1cDLtaGuu/UuQT
rtus1KlLT1RZ8m+A5C4pnpgFrK9Ryoe5gt6FIit9d5/IvlEUTj3bcuFdi6Riw0NQ
VF6B4PfEmxu8oD0FJ/yL/KRRr+N5mNPDxaj/H9DD5HJP3rCe3Zr/YWHdhkvt7xkF
jTuAWVCnlW2n33kP8Nbb6jOZ2+TE0xxkg4YdS9F49V8uB074xHHo66b7MZGIhfzY
CxvWC7XLY9TYCwdGVprRWPODEOUhp1Swb9+FawIDAQABo4HdMIHaMB0GA1UdDgQW
BBSCMDUXqv1hX3TMpQCRvolmC///CzCBqgYDVR0jBIGiMIGfgBSCMDUXqv1hX3TM
pQCRvolmC///C6F8pHoweDELMAkGA1UEBhMCUFQxHjAcBgNVBAoTFVVuaXZlcnNp
ZGFkZSBkbyBQb3J0bzEMMAoGA1UECxMDTVNJMR4wHAYDVQQDExVDQSBST09UIE1T
SSAyMDE5IDIwMjAxGzAZBgkqhkiG9w0BCQEWDG1iYkBmYy51cC5wdIIJAL6TBns4
3jbPMAwGA1UdEwQFMAMBAf8wDQYJKoZIhvcNAQEFBQADggEBAIcSIw6PoBQ1sGEL
0NovH9S9HrHjhtJWx1+fLLP8zgRxRwoiRroE8SOati/jz48N35dqf31NYDlXBzPs
qVpz2gWA8ijYXhmv5hKUOkSQ73nvMyJ+clU/zanJtTGKtbi6ijOvO3Pg/h9JoiOf
FdS+7tDrgdhtShJ6+hnb50YnbFpsYwu2XRzQ81JiOGqGKmziznqJL30HISE7vq3c
HqHLLjz+PRTnLnFfynU0lKrIKMa2uA++oMQroQ7VaboBKMBI6Cb6UcQd0XUGBJ26
2ouJ4vydt7lPxwv5Ho7a5vEugaKIsMmBG1UebVwjANhmTv1oD5SzG9iJ1rkN85n7
/xBL5IU=
-----END CERTIFICATE-----
