Certificate:
    Data:
        Version: 3 (0x2)
        Serial Number: 2 (0x2)
        Signature Algorithm: sha256WithRSAEncryption
        Issuer: C=PT, ST=Porto, L=Porto, O=Universidade do Porto, OU=MSI, CN=SubCA13/emailAddress=up201606726@fc.up.pt
        Validity
            Not Before: May 25 21:05:54 2020 GMT
            Not After : May 25 21:05:54 2021 GMT
        Subject: C=PT, ST=Porto, L=Porto, O=Universidade do Porto, OU=MSI, CN=server/emailAddress=server@fc.up.pt
        Subject Public Key Info:
            Public Key Algorithm: rsaEncryption
                RSA Public-Key: (2048 bit)
                Modulus:
                    00:d7:07:26:d8:d1:de:c1:ed:dd:c2:c5:1d:54:05:
                    89:be:99:4a:d6:a6:89:44:ca:ff:d1:b5:b2:10:8c:
                    79:37:b3:3d:83:85:9d:f5:b4:68:f4:70:b2:c6:b8:
                    c7:61:41:f8:9d:2b:14:ae:16:5c:06:7a:a5:4c:10:
                    0f:95:c4:bd:7d:e7:7a:56:82:4b:92:34:ec:65:74:
                    27:21:15:ab:3f:62:63:d6:a5:83:5e:c1:a4:6f:1c:
                    3b:f8:51:be:02:d0:83:88:2c:cc:fa:b0:19:10:22:
                    99:9a:c8:35:51:0a:22:dd:05:bb:d6:43:07:f4:12:
                    3f:01:3a:cc:8a:51:0e:73:f0:5f:43:69:e7:b2:0f:
                    08:53:1d:9a:ad:9a:2b:1e:c0:92:b3:31:cd:c4:47:
                    9e:b8:76:ee:9e:b3:83:2f:fe:2c:93:74:03:0c:51:
                    5c:05:3e:1d:82:0b:69:b7:31:e6:3a:8e:1b:67:2b:
                    ac:6c:4a:e1:72:03:65:24:01:98:38:f5:9e:fa:bc:
                    be:40:0f:a0:55:dc:96:e7:79:38:cf:10:0d:c8:0c:
                    34:0f:60:42:16:bf:68:d4:45:6b:65:2b:3e:a4:ff:
                    a3:81:bd:59:ca:8b:1b:e8:30:01:cb:52:af:45:86:
                    d9:ce:55:23:38:ae:45:57:5d:e6:4b:ae:70:11:06:
                    5f:87
                Exponent: 65537 (0x10001)
        X509v3 extensions:
            X509v3 Basic Constraints: 
                CA:FALSE
            Netscape Comment: 
                OpenSSL Generated Certificate
            X509v3 Subject Key Identifier: 
                13:FF:4F:A1:DF:49:66:FF:8F:C2:E7:88:B0:AE:1F:30:80:10:CE:65
            X509v3 Authority Key Identifier: 
                keyid:74:A5:3C:7B:9F:14:E3:22:6F:0D:65:2B:06:0A:AB:FD:F8:2D:94:93

    Signature Algorithm: sha256WithRSAEncryption
         a5:f0:65:04:bf:58:28:cc:9c:c6:4d:94:a2:bc:d9:88:71:ab:
         7e:96:e9:49:cd:8d:84:4a:55:a6:26:4b:31:a5:eb:56:9d:57:
         0b:b1:79:a4:60:a7:bd:45:0d:f0:35:f3:7e:ec:fd:13:43:82:
         92:b6:e0:0f:86:5a:dd:9a:fe:aa:8e:68:e0:70:59:45:43:5f:
         e4:be:9d:59:dd:bf:25:c1:82:ec:02:40:5f:e1:2d:30:12:24:
         1f:f5:c6:71:bf:2f:a9:01:44:d5:9f:a4:bc:84:29:4b:b0:f7:
         44:73:41:f0:03:c8:c2:2d:ea:99:66:c6:6e:13:09:6f:2b:c0:
         18:86:51:67:a4:45:06:78:d3:96:78:95:38:52:b4:ea:20:e5:
         46:17:cb:e0:41:03:bf:4d:36:9b:24:c0:fd:44:07:02:82:0b:
         e0:90:f6:35:9e:b0:58:d3:32:cc:f0:1e:76:72:68:f7:93:f4:
         c5:83:8e:5b:da:93:aa:1d:53:d2:d8:e4:59:04:34:f0:85:29:
         60:4a:68:fb:65:ee:1e:6a:27:ea:37:dd:b3:14:c4:16:15:17:
         6b:ee:57:50:a9:5d:89:38:0d:4b:97:56:95:57:37:8b:0d:c5:
         23:73:94:07:7c:0c:70:31:d6:ce:63:4c:79:5b:4c:0b:68:fe:
         1d:8d:8e:8f
-----BEGIN CERTIFICATE-----
MIIEFjCCAv6gAwIBAgIBAjANBgkqhkiG9w0BAQsFADCBkjELMAkGA1UEBhMCUFQx
DjAMBgNVBAgMBVBvcnRvMQ4wDAYDVQQHDAVQb3J0bzEeMBwGA1UECgwVVW5pdmVy
c2lkYWRlIGRvIFBvcnRvMQwwCgYDVQQLDANNU0kxEDAOBgNVBAMMB1N1YkNBMTMx
IzAhBgkqhkiG9w0BCQEWFHVwMjAxNjA2NzI2QGZjLnVwLnB0MB4XDTIwMDUyNTIx
MDU1NFoXDTIxMDUyNTIxMDU1NFowgYwxCzAJBgNVBAYTAlBUMQ4wDAYDVQQIDAVQ
b3J0bzEOMAwGA1UEBwwFUG9ydG8xHjAcBgNVBAoMFVVuaXZlcnNpZGFkZSBkbyBQ
b3J0bzEMMAoGA1UECwwDTVNJMQ8wDQYDVQQDDAZzZXJ2ZXIxHjAcBgkqhkiG9w0B
CQEWD3NlcnZlckBmYy51cC5wdDCCASIwDQYJKoZIhvcNAQEBBQADggEPADCCAQoC
ggEBANcHJtjR3sHt3cLFHVQFib6ZStamiUTK/9G1shCMeTezPYOFnfW0aPRwssa4
x2FB+J0rFK4WXAZ6pUwQD5XEvX3nelaCS5I07GV0JyEVqz9iY9alg17BpG8cO/hR
vgLQg4gszPqwGRAimZrINVEKIt0Fu9ZDB/QSPwE6zIpRDnPwX0Np57IPCFMdmq2a
Kx7AkrMxzcRHnrh27p6zgy/+LJN0AwxRXAU+HYILabcx5jqOG2crrGxK4XIDZSQB
mDj1nvq8vkAPoFXclud5OM8QDcgMNA9gQha/aNRFa2UrPqT/o4G9WcqLG+gwActS
r0WG2c5VIziuRVdd5kuucBEGX4cCAwEAAaN7MHkwCQYDVR0TBAIwADAsBglghkgB
hvhCAQ0EHxYdT3BlblNTTCBHZW5lcmF0ZWQgQ2VydGlmaWNhdGUwHQYDVR0OBBYE
FBP/T6HfSWb/j8LniLCuHzCAEM5lMB8GA1UdIwQYMBaAFHSlPHufFOMibw1lKwYK
q/34LZSTMA0GCSqGSIb3DQEBCwUAA4IBAQCl8GUEv1gozJzGTZSivNmIcat+lulJ
zY2ESlWmJksxpetWnVcLsXmkYKe9RQ3wNfN+7P0TQ4KStuAPhlrdmv6qjmjgcFlF
Q1/kvp1Z3b8lwYLsAkBf4S0wEiQf9cZxvy+pAUTVn6S8hClLsPdEc0HwA8jCLeqZ
ZsZuEwlvK8AYhlFnpEUGeNOWeJU4UrTqIOVGF8vgQQO/TTabJMD9RAcCggvgkPY1
nrBY0zLM8B52cmj3k/TFg45b2pOqHVPS2ORZBDTwhSlgSmj7Ze4eaifqN92zFMQW
FRdr7ldQqV2JOA1Ll1aVVzeLDcUjc5QHfAxwMdbOY0x5W0wLaP4djY6P
-----END CERTIFICATE-----
